; Function Attrs: nounwind uwtable
define void @pmix_server_spcbfunc(i32 noundef %0, ptr noundef %1, ptr noundef %2) #0 {
  %4 = icmp eq i32 %0, 0
  br i1 %4, label %5, label %11

5:                                                ; preds = %3
  %6 = getelementptr inbounds nuw i8, ptr %2, i64 472
  %7 = load ptr, ptr %6, align 8, !tbaa !214
  %8 = getelementptr inbounds nuw i8, ptr %2, i64 880
  %9 = load i16, ptr %8, align 8, !tbaa !215
  %10 = tail call i32 @pmix_server_process_iof(ptr noundef %7, ptr noundef %1, i16 noundef zeroext %9)
  br label %11

11:                                               ; preds = %5, %3
  %.0 = phi i32 [ %10, %5 ], [ %0, %3 ]
  %12 = getelementptr inbounds nuw i8, ptr %2, i64 984
  %13 = load ptr, ptr %12, align 8, !tbaa !216
  %.not = icmp eq ptr %13, null
  br i1 %.not, label %17, label %14

14:                                               ; preds = %11
  %15 = getelementptr inbounds nuw i8, ptr %2, i64 992
  %16 = load ptr, ptr %15, align 8, !tbaa !128
  tail call void %13(i32 noundef %.0, ptr noundef %1, ptr noundef %16) #19
  br label %17

17:                                               ; preds = %11, %14
  %18 = tail call i32 @pthread_mutex_lock(ptr noundef nonnull %2) #19
  %19 = icmp eq i32 %18, 35
  br i1 %19, label %20, label %pmix_obj_update.exit

20:                                               ; preds = %17
  %21 = tail call ptr @__errno_location() #22
  store i32 35, ptr %21, align 4, !tbaa !23
  tail call void @perror(ptr noundef nonnull @.str.86) #23
  tail call void @abort() #24
  unreachable

pmix_obj_update.exit:                             ; preds = %17
  %22 = getelementptr inbounds nuw i8, ptr %2, i64 48
  %23 = load i32, ptr %22, align 8, !tbaa !78
  %24 = add nsw i32 %23, -1
  store i32 %24, ptr %22, align 8, !tbaa !78
  %25 = tail call i32 @pthread_mutex_unlock(ptr noundef nonnull %2) #19
  %26 = icmp eq i32 %24, 0
  br i1 %26, label %27, label %41

27:                                               ; preds = %pmix_obj_update.exit
  %28 = getelementptr inbounds nuw i8, ptr %2, i64 40
  %29 = load ptr, ptr %28, align 8, !tbaa !77
  %30 = getelementptr inbounds nuw i8, ptr %29, i64 48
  %31 = load ptr, ptr %30, align 8, !tbaa !88
  %32 = load ptr, ptr %31, align 8, !tbaa !80
  %.not6.i = icmp eq ptr %32, null
  br i1 %.not6.i, label %pmix_obj_run_destructors.exit, label %.lr.ph.i

.lr.ph.i:                                         ; preds = %27, %.lr.ph.i
  %33 = phi ptr [ %35, %.lr.ph.i ], [ %32, %27 ]
  %.07.i = phi ptr [ %34, %.lr.ph.i ], [ %31, %27 ]
  tail call void %33(ptr noundef nonnull %2) #19
  %34 = getelementptr inbounds nuw i8, ptr %.07.i, i64 8
  %35 = load ptr, ptr %34, align 8, !tbaa !80
  %.not.i = icmp eq ptr %35, null
  br i1 %.not.i, label %pmix_obj_run_destructors.exit, label %.lr.ph.i, !llvm.loop !89

pmix_obj_run_destructors.exit:                    ; preds = %.lr.ph.i, %27
  %36 = getelementptr inbounds nuw i8, ptr %2, i64 96
  %37 = load ptr, ptr %36, align 8, !tbaa !90
  %.not19 = icmp eq ptr %37, null
  br i1 %.not19, label %40, label %38

38:                                               ; preds = %pmix_obj_run_destructors.exit
  %39 = getelementptr inbounds nuw i8, ptr %2, i64 56
  tail call void %37(ptr noundef nonnull %39, ptr noundef nonnull %2) #19
  br label %41

40:                                               ; preds = %pmix_obj_run_destructors.exit
  tail call void @free(ptr noundef nonnull %2) #19
  br label %41

41:                                               ; preds = %38, %40, %pmix_obj_update.exit
  ret void
}